target datalayout = "e-m:e-p270:32:32-p271:32:32-p272:64:64-i64:64-i128:128-f80:128-n8:16:32:64-S128"
target triple = "x86_64-pc-linux-gnu"

%struct.GDBUserState = type { i32, ptr, i32, i8, [16 x i64], i8, i32, [2 x i32], i32, i32, [128 x i8], i64 }
%struct.GDBState = type { i8, ptr, ptr, ptr, i32, [4096 x i8], i32, i32, i32, ptr, i32, i8, ptr, i32, ptr, ptr, i32, i32, i8 }
%struct._GString = type { ptr, i64, i64 }

@gdbserver_user_state = internal global %struct.GDBUserState zeroinitializer, align 8
@gdbserver_state = external global %struct.GDBState, align 8
@.str.1 = private unnamed_addr constant [13 x i8] c"T%02xthread:\00", align 1

; Function Attrs: inlinehint nounwind sspstrong uwtable
define internal ptr @g_string_append_c_inline(ptr noundef %0, i8 noundef signext %1) #6 {
  %3 = alloca ptr, align 8
  %4 = alloca i8, align 1
  store ptr %0, ptr %3, align 8
  store i8 %1, ptr %4, align 1
  %5 = load ptr, ptr %3, align 8
  %6 = getelementptr inbounds nuw %struct._GString, ptr %5, i32 0, i32 1
  %7 = load i64, ptr %6, align 8
  %8 = add i64 %7, 1
  %9 = load ptr, ptr %3, align 8
  %10 = getelementptr inbounds nuw %struct._GString, ptr %9, i32 0, i32 2
  %11 = load i64, ptr %10, align 8
  %12 = icmp ult i64 %8, %11
  br i1 %12, label %13, label %30

13:                                               ; preds = %2
  %14 = load i8, ptr %4, align 1
  %15 = load ptr, ptr %3, align 8
  %16 = getelementptr inbounds nuw %struct._GString, ptr %15, i32 0, i32 0
  %17 = load ptr, ptr %16, align 8
  %18 = load ptr, ptr %3, align 8
  %19 = getelementptr inbounds nuw %struct._GString, ptr %18, i32 0, i32 1
  %20 = load i64, ptr %19, align 8
  %21 = add i64 %20, 1
  store i64 %21, ptr %19, align 8
  %22 = getelementptr inbounds nuw i8, ptr %17, i64 %20
  store i8 %14, ptr %22, align 1
  %23 = load ptr, ptr %3, align 8
  %24 = getelementptr inbounds nuw %struct._GString, ptr %23, i32 0, i32 0
  %25 = load ptr, ptr %24, align 8
  %26 = load ptr, ptr %3, align 8
  %27 = getelementptr inbounds nuw %struct._GString, ptr %26, i32 0, i32 1
  %28 = load i64, ptr %27, align 8
  %29 = getelementptr inbounds nuw i8, ptr %25, i64 %28
  store i8 0, ptr %29, align 1
  br label %34

30:                                               ; preds = %2
  %31 = load ptr, ptr %3, align 8
  %32 = load i8, ptr %4, align 1
  %33 = call ptr @g_string_insert_c(ptr noundef %31, i64 noundef -1, i8 noundef signext %32)
  br label %34

34:                                               ; preds = %30, %13
  %35 = load ptr, ptr %3, align 8
  ret ptr %35
}

; Function Attrs: alwaysinline nounwind
define internal ptr @memcpy.inline(ptr noalias nonnull %0, ptr noalias nonnull %1, i64 %2) #8 {
  %4 = alloca ptr, align 8
  %5 = alloca ptr, align 8
  %6 = alloca i64, align 8
  store ptr %0, ptr %4, align 8
  store ptr %1, ptr %5, align 8
  store i64 %2, ptr %6, align 8
  %7 = load ptr, ptr %4, align 8
  %8 = load ptr, ptr %5, align 8
  %9 = load i64, ptr %6, align 8
  %10 = load ptr, ptr %4, align 8
  %11 = call i64 @llvm.objectsize.i64.p0(ptr %10, i1 false, i1 true, i1 false)
  %12 = call ptr @__memcpy_chk(ptr noundef %7, ptr noundef %8, i64 noundef %9, i64 noundef %11) #14
  ret ptr %12
}

; Function Attrs: nounwind sspstrong uwtable
define dso_local i32 @gdb_handlesig(ptr noundef %0, i32 noundef %1, ptr noundef %2, ptr noundef %3, i32 noundef %4) #0 {
  %6 = alloca i32, align 4
  %7 = alloca ptr, align 8
  %8 = alloca i32, align 4
  %9 = alloca ptr, align 8
  %10 = alloca ptr, align 8
  %11 = alloca i32, align 4
  %12 = alloca [256 x i8], align 16
  %13 = alloca i32, align 4
  %14 = alloca i32, align 4
  %15 = alloca i32, align 4
  store ptr %0, ptr %7, align 8
  store i32 %1, ptr %8, align 4
  store ptr %2, ptr %9, align 8
  store ptr %3, ptr %10, align 8
  store i32 %4, ptr %11, align 4
  call void @llvm.lifetime.start.p0(i64 256, ptr %12) #14
  call void @llvm.memset.p0.i64(ptr align 16 %12, i8 0, i64 256, i1 false), !annotation !4
  call void @llvm.lifetime.start.p0(i64 4, ptr %13) #14
  store i32 0, ptr %13, align 4, !annotation !4
  %16 = load i8, ptr @gdbserver_state, align 8, !range !7, !noundef !8
  %17 = trunc i8 %16 to i1
  br i1 %17, label %18, label %21

18:                                               ; preds = %5
  %19 = load i32, ptr @gdbserver_user_state, align 8
  %20 = icmp slt i32 %19, 0
  br i1 %20, label %21, label %23

21:                                               ; preds = %18, %5
  %22 = load i32, ptr %8, align 4
  store i32 %22, ptr %6, align 4
  store i32 1, ptr %14, align 4
  br label %100

23:                                               ; preds = %18
  %24 = load ptr, ptr %10, align 8
  %25 = icmp ne ptr %24, null
  br i1 %25, label %26, label %33

26:                                               ; preds = %23
  %27 = load ptr, ptr %10, align 8
  %28 = load i32, ptr %11, align 4
  %29 = sext i32 %28 to i64
  %30 = call ptr @memcpy.inline(ptr noundef getelementptr inbounds nuw (%struct.GDBUserState, ptr @gdbserver_user_state, i32 0, i32 10), ptr noundef %27, i64 noundef %29) #14
  %31 = load i32, ptr %11, align 4
  %32 = sext i32 %31 to i64
  store i64 %32, ptr getelementptr inbounds nuw (%struct.GDBUserState, ptr @gdbserver_user_state, i32 0, i32 11), align 8
  br label %33

33:                                               ; preds = %26, %23
  %34 = load ptr, ptr %7, align 8
  call void @cpu_single_step(ptr noundef %34, i32 noundef 0)
  %35 = load ptr, ptr %7, align 8
  call void @tb_flush(ptr noundef %35)
  %36 = load i32, ptr %8, align 4
  %37 = icmp ne i32 %36, 0
  br i1 %37, label %38, label %58

38:                                               ; preds = %33
  %39 = load ptr, ptr %7, align 8
  call void @gdb_set_stop_cpu(ptr noundef %39)
  %40 = load i8, ptr getelementptr inbounds nuw (%struct.GDBState, ptr @gdbserver_state, i32 0, i32 18), align 8, !range !7, !noundef !8
  %41 = trunc i8 %40 to i1
  br i1 %41, label %42, label %57

42:                                               ; preds = %38
  %43 = load ptr, ptr getelementptr inbounds nuw (%struct.GDBState, ptr @gdbserver_state, i32 0, i32 14), align 8
  %44 = load i32, ptr %8, align 4
  %45 = call i32 @gdb_target_signal_to_gdb(i32 noundef %44)
  call void (ptr, ptr, ...) @g_string_printf(ptr noundef %43, ptr noundef @.str.1, i32 noundef %45)
  %46 = load ptr, ptr %7, align 8
  %47 = load ptr, ptr getelementptr inbounds nuw (%struct.GDBState, ptr @gdbserver_state, i32 0, i32 14), align 8
  call void @gdb_append_thread_id(ptr noundef %46, ptr noundef %47)
  %48 = load ptr, ptr getelementptr inbounds nuw (%struct.GDBState, ptr @gdbserver_state, i32 0, i32 14), align 8
  %49 = call ptr @g_string_append_c_inline(ptr noundef %48, i8 noundef signext 59)
  %50 = load ptr, ptr %9, align 8
  %51 = icmp ne ptr %50, null
  br i1 %51, label %52, label %56

52:                                               ; preds = %42
  %53 = load ptr, ptr getelementptr inbounds nuw (%struct.GDBState, ptr @gdbserver_state, i32 0, i32 14), align 8
  %54 = load ptr, ptr %9, align 8
  %55 = call ptr @g_string_append(ptr noundef %53, ptr noundef %54)
  br label %56

56:                                               ; preds = %52, %42
  call void @gdb_put_strbuf()
  store i8 0, ptr getelementptr inbounds nuw (%struct.GDBState, ptr @gdbserver_state, i32 0, i32 18), align 8
  br label %57

57:                                               ; preds = %56, %38
  br label %58

58:                                               ; preds = %57, %33
  %59 = load i32, ptr @gdbserver_user_state, align 8
  %60 = icmp slt i32 %59, 0
  br i1 %60, label %61, label %63

61:                                               ; preds = %58
  %62 = load i32, ptr %8, align 4
  store i32 %62, ptr %6, align 4
  store i32 1, ptr %14, align 4
  br label %100

63:                                               ; preds = %58
  store i32 0, ptr %8, align 4
  store i32 1, ptr getelementptr inbounds nuw (%struct.GDBState, ptr @gdbserver_state, i32 0, i32 4), align 8
  store i32 0, ptr getelementptr inbounds nuw (%struct.GDBUserState, ptr @gdbserver_user_state, i32 0, i32 2), align 8
  br label %64

64:                                               ; preds = %96, %63
  %65 = load i32, ptr getelementptr inbounds nuw (%struct.GDBUserState, ptr @gdbserver_user_state, i32 0, i32 2), align 8
  %66 = icmp eq i32 %65, 0
  br i1 %66, label %67, label %97

67:                                               ; preds = %64
  %68 = load i32, ptr @gdbserver_user_state, align 8
  %69 = getelementptr inbounds [256 x i8], ptr %12, i64 0, i64 0
  %70 = call i64 @read(i32 noundef %68, ptr noundef %69, i64 noundef 256)
  %71 = trunc i64 %70 to i32
  store i32 %71, ptr %13, align 4
  %72 = load i32, ptr %13, align 4
  %73 = icmp sgt i32 %72, 0
  br i1 %73, label %74, label %88

74:                                               ; preds = %67
  call void @llvm.lifetime.start.p0(i64 4, ptr %15) #14
  store i32 0, ptr %15, align 4, !annotation !4
  store i32 0, ptr %15, align 4
  br label %75

75:                                               ; preds = %84, %74
  %76 = load i32, ptr %15, align 4
  %77 = load i32, ptr %13, align 4
  %78 = icmp slt i32 %76, %77
  br i1 %78, label %79, label %87

79:                                               ; preds = %75
  %80 = load i32, ptr %15, align 4
  %81 = sext i32 %80 to i64
  %82 = getelementptr inbounds [256 x i8], ptr %12, i64 0, i64 %81
  %83 = load i8, ptr %82, align 1
  call void @gdb_read_byte(i8 noundef zeroext %83)
  br label %84

84:                                               ; preds = %79
  %85 = load i32, ptr %15, align 4
  %86 = add i32 %85, 1
  store i32 %86, ptr %15, align 4
  br label %75, !llvm.loop !9

87:                                               ; preds = %75
  call void @llvm.lifetime.end.p0(i64 4, ptr %15) #14
  br label %96

88:                                               ; preds = %67
  %89 = load i32, ptr %13, align 4
  %90 = icmp eq i32 %89, 0
  br i1 %90, label %91, label %94

91:                                               ; preds = %88
  %92 = load i32, ptr @gdbserver_user_state, align 8
  %93 = call i32 @close(i32 noundef %92)
  br label %94

94:                                               ; preds = %91, %88
  store i32 -1, ptr @gdbserver_user_state, align 8
  %95 = load i32, ptr %8, align 4
  store i32 %95, ptr %6, align 4
  store i32 1, ptr %14, align 4
  br label %100

96:                                               ; preds = %87
  br label %64, !llvm.loop !10

97:                                               ; preds = %64
  %98 = load i32, ptr getelementptr inbounds nuw (%struct.GDBState, ptr @gdbserver_state, i32 0, i32 10), align 8
  store i32 %98, ptr %8, align 4
  store i32 0, ptr getelementptr inbounds nuw (%struct.GDBState, ptr @gdbserver_state, i32 0, i32 10), align 8
  %99 = load i32, ptr %8, align 4
  store i32 %99, ptr %6, align 4
  store i32 1, ptr %14, align 4
  br label %100

100:                                              ; preds = %97, %94, %61, %21
  call void @llvm.lifetime.end.p0(i64 4, ptr %13) #14
  call void @llvm.lifetime.end.p0(i64 256, ptr %12) #14
  %101 = load i32, ptr %6, align 4
  ret i32 %101
}