; Function Attrs: nounwind sspstrong uwtable
define dso_local i32 @gdb_handlesig(ptr noundef %0, i32 noundef %1, ptr noundef %2, ptr noundef readonly captures(address_is_null) %3, i32 noundef %4) local_unnamed_addr #0 {
  %6 = alloca [256 x i8], align 16
  call void @llvm.lifetime.start.p0(i64 256, ptr nonnull %6) #16
  %7 = load i8, ptr @gdbserver_state, align 8, !range !7, !noundef !8
  %8 = trunc nuw i8 %7 to i1
  %9 = load i32, ptr @gdbserver_user_state, align 8
  %10 = icmp sgt i32 %9, -1
  %or.cond.not = select i1 %8, i1 %10, i1 false
  br i1 %or.cond.not, label %11, label %62

11:                                               ; preds = %5
  %.not = icmp eq ptr %3, null
  br i1 %.not, label %15, label %12

12:                                               ; preds = %11
  %13 = sext i32 %4 to i64
  %14 = tail call ptr @__memcpy_chk(ptr noundef nonnull getelementptr inbounds nuw (i8, ptr @gdbserver_user_state, i64 176), ptr noundef nonnull %3, i64 noundef range(i64 -2147483648, 2147483648) %13, i64 noundef 136) #16, !alias.scope !10
  store i64 %13, ptr getelementptr inbounds nuw (i8, ptr @gdbserver_user_state, i64 304), align 8
  br label %15

15:                                               ; preds = %12, %11
  tail call void @cpu_single_step(ptr noundef %0, i32 noundef 0) #16
  tail call void @tb_flush(ptr noundef %0) #16
  %.not29 = icmp eq i32 %1, 0
  br i1 %.not29, label %42, label %16

16:                                               ; preds = %15
  tail call void @gdb_set_stop_cpu(ptr noundef %0) #16
  %17 = load i8, ptr getelementptr inbounds nuw (i8, ptr @gdbserver_state, i64 4200), align 8, !range !7, !noundef !8
  %18 = trunc nuw i8 %17 to i1
  br i1 %18, label %19, label %42

19:                                               ; preds = %16
  %20 = load ptr, ptr getelementptr inbounds nuw (i8, ptr @gdbserver_state, i64 4176), align 8
  %21 = tail call i32 @gdb_target_signal_to_gdb(i32 noundef %1) #16
  tail call void (ptr, ptr, ...) @g_string_printf(ptr noundef %20, ptr noundef nonnull @.str.1, i32 noundef %21) #16
  %22 = load ptr, ptr getelementptr inbounds nuw (i8, ptr @gdbserver_state, i64 4176), align 8
  tail call void @gdb_append_thread_id(ptr noundef %0, ptr noundef %22) #16
  %23 = load ptr, ptr getelementptr inbounds nuw (i8, ptr @gdbserver_state, i64 4176), align 8
  %24 = getelementptr inbounds nuw i8, ptr %23, i64 8
  %25 = load i64, ptr %24, align 8
  %26 = add i64 %25, 1
  %27 = getelementptr inbounds nuw i8, ptr %23, i64 16
  %28 = load i64, ptr %27, align 8
  %29 = icmp ult i64 %26, %28
  br i1 %29, label %30, label %36

30:                                               ; preds = %19
  %31 = load ptr, ptr %23, align 8
  store i64 %26, ptr %24, align 8
  %32 = getelementptr inbounds nuw i8, ptr %31, i64 %25
  store i8 59, ptr %32, align 1
  %33 = load ptr, ptr %23, align 8
  %34 = load i64, ptr %24, align 8
  %35 = getelementptr inbounds nuw i8, ptr %33, i64 %34
  store i8 0, ptr %35, align 1
  br label %g_string_append_c_inline.exit

36:                                               ; preds = %19
  %37 = tail call ptr @g_string_insert_c(ptr noundef nonnull %23, i64 noundef -1, i8 noundef signext 59) #16
  br label %g_string_append_c_inline.exit

g_string_append_c_inline.exit:                    ; preds = %30, %36
  %.not30 = icmp eq ptr %2, null
  br i1 %.not30, label %41, label %38

38:                                               ; preds = %g_string_append_c_inline.exit
  %39 = load ptr, ptr getelementptr inbounds nuw (i8, ptr @gdbserver_state, i64 4176), align 8
  %40 = tail call ptr @g_string_append(ptr noundef %39, ptr noundef nonnull %2) #16
  br label %41

41:                                               ; preds = %38, %g_string_append_c_inline.exit
  tail call void @gdb_put_strbuf() #16
  store i8 0, ptr getelementptr inbounds nuw (i8, ptr @gdbserver_state, i64 4200), align 8
  br label %42

42:                                               ; preds = %16, %41, %15
  %43 = load i32, ptr @gdbserver_user_state, align 8
  %44 = icmp slt i32 %43, 0
  br i1 %44, label %62, label %45

45:                                               ; preds = %42
  call void @llvm.memset.p0.i64(ptr noundef nonnull align 16 dereferenceable(256) %6, i8 0, i64 256, i1 false), !annotation !4
  store i32 1, ptr getelementptr inbounds nuw (i8, ptr @gdbserver_state, i64 32), align 8
  store i32 0, ptr getelementptr inbounds nuw (i8, ptr @gdbserver_user_state, i64 16), align 8
  br label %47

thread-pre-split:                                 ; preds = %.preheader
  %.pr = load i32, ptr getelementptr inbounds nuw (i8, ptr @gdbserver_user_state, i64 16), align 8
  %46 = icmp eq i32 %.pr, 0
  br i1 %46, label %47, label %60

47:                                               ; preds = %45, %thread-pre-split
  %48 = load i32, ptr @gdbserver_user_state, align 8
  %49 = call i64 @read(i32 noundef %48, ptr noundef nonnull %6, i64 noundef 256) #16
  %50 = trunc i64 %49 to i32
  %51 = icmp sgt i32 %50, 0
  br i1 %51, label %.preheader.preheader, label %54

.preheader.preheader:                             ; preds = %47
  %wide.trip.count = and i64 %49, 2147483647
  br label %.preheader

.preheader:                                       ; preds = %.preheader.preheader, %.preheader
  %indvars.iv = phi i64 [ 0, %.preheader.preheader ], [ %indvars.iv.next, %.preheader ]
  %52 = getelementptr inbounds nuw [256 x i8], ptr %6, i64 0, i64 %indvars.iv
  %53 = load i8, ptr %52, align 1
  tail call void @gdb_read_byte(i8 noundef zeroext %53) #16
  %indvars.iv.next = add nuw nsw i64 %indvars.iv, 1
  %exitcond.not = icmp eq i64 %indvars.iv.next, %wide.trip.count
  br i1 %exitcond.not, label %thread-pre-split, label %.preheader, !llvm.loop !14

54:                                               ; preds = %47
  %55 = icmp eq i32 %50, 0
  br i1 %55, label %56, label %59

56:                                               ; preds = %54
  %57 = load i32, ptr @gdbserver_user_state, align 8
  %58 = tail call i32 @close(i32 noundef %57) #16
  br label %59

59:                                               ; preds = %56, %54
  store i32 -1, ptr @gdbserver_user_state, align 8
  br label %62

60:                                               ; preds = %thread-pre-split
  %61 = load i32, ptr getelementptr inbounds nuw (i8, ptr @gdbserver_state, i64 4152), align 8
  store i32 0, ptr getelementptr inbounds nuw (i8, ptr @gdbserver_state, i64 4152), align 8
  br label %62

62:                                               ; preds = %42, %5, %60, %59
  %.023 = phi i32 [ 0, %59 ], [ %61, %60 ], [ %1, %5 ], [ %1, %42 ]
  call void @llvm.lifetime.end.p0(i64 256, ptr nonnull %6) #16
  ret i32 %.023
}